; Function Attrs: nounwind uwtable
define internal void @dtgtk_drawing_area_class_intern_init(ptr noundef %0) #0 {
  %2 = tail call ptr @g_type_class_peek_parent(ptr noundef %0) #5
  store ptr %2, ptr @dtgtk_drawing_area_parent_class, align 8, !tbaa !23
  %3 = load i32, ptr @GtkDarktableDrawingArea_private_offset, align 4, !tbaa !24
  %.not = icmp eq i32 %3, 0
  br i1 %.not, label %5, label %4

4:                                                ; preds = %1
  tail call void @g_type_class_adjust_private_offset(ptr noundef %0, ptr noundef nonnull @GtkDarktableDrawingArea_private_offset) #5
  br label %5

5:                                                ; preds = %4, %1
  %6 = tail call i64 @gtk_widget_get_type() #6
  %7 = tail call ptr @g_type_check_class_cast(ptr noundef %0, i64 noundef %6) #5
  %8 = getelementptr inbounds nuw i8, ptr %7, i64 296
  store ptr @dtgtk_drawing_area_get_request_mode, ptr %8, align 8, !tbaa !25
  %9 = getelementptr inbounds nuw i8, ptr %7, i64 328
  store ptr @dtgtk_drawing_area_get_preferred_height_for_width, ptr %9, align 8, !tbaa !31
  ret void
}